target datalayout = "e-m:e-p270:32:32-p271:32:32-p272:64:64-i64:64-i128:128-f80:128-n8:16:32:64-S128"
target triple = "x86_64-pc-linux-gnu"

%class.LIR_Opr = type { i64 }
%class.PhiResolverState = type { %class.GrowableArray, %class.GrowableArray, %class.GrowableArray }
%class.GrowableArray = type { %class.GrowableArrayWithAllocator, %class.GrowableArrayMetadata }
%class.GrowableArrayWithAllocator = type { %class.GrowableArrayView }
%class.GrowableArrayView = type { %class.GrowableArrayBase, ptr }
%class.GrowableArrayBase = type { i32, i32 }
%class.GrowableArrayMetadata = type { i64 }
%class.PhiResolver = type { ptr, ptr, ptr, %class.LIR_Opr }
%class.LIRGenerator = type { %class.InstructionVisitor, %class.BlockClosure, ptr, ptr, %class.PhiResolverState, ptr, i32, %class.BitMap2D, ptr, %class.GrowableArray.0, %class.GrowableArray.3, %class.GrowableArray.6, ptr }
%class.InstructionVisitor = type { ptr }
%class.BlockClosure = type { ptr }
%class.BitMap2D = type { %class.ResourceBitMap, i64 }
%class.ResourceBitMap = type { %class.GrowableBitMap }
%class.GrowableBitMap = type { %class.BitMap }
%class.BitMap = type { ptr, i64 }
%class.GrowableArray.0 = type { %class.GrowableArrayWithAllocator.1, %class.GrowableArrayMetadata }
%class.GrowableArrayWithAllocator.1 = type { %class.GrowableArrayView.2 }
%class.GrowableArrayView.2 = type { %class.GrowableArrayBase, ptr }
%class.GrowableArray.3 = type { %class.GrowableArrayWithAllocator.4, %class.GrowableArrayMetadata }
%class.GrowableArrayWithAllocator.4 = type { %class.GrowableArrayView.5 }
%class.GrowableArrayView.5 = type { %class.GrowableArrayBase, ptr }
%class.GrowableArray.6 = type { %class.GrowableArrayWithAllocator.7, %class.GrowableArrayMetadata }
%class.GrowableArrayWithAllocator.7 = type { %class.GrowableArrayView.8 }
%class.GrowableArrayView.8 = type { %class.GrowableArrayBase, ptr }

@_ZN11LIR_OprFact10illegalOprE = external global %class.LIR_Opr, align 8
@g_assert_poison = external global ptr, align 8
@.str.7 = private unnamed_addr constant [42 x i8] c"out of virtual registers in LIR generator\00", align 1
@.str.14 = private unnamed_addr constant [32 x i8] c"src/hotspot/share/c1/c1_LIR.hpp\00", align 1

; Function Attrs: mustprogress nounwind uwtable
define linkonce_odr hidden noundef i32 @_ZNK7LIR_Opr10kind_fieldEv(ptr noundef nonnull align 8 dereferenceable(8) %0) #1 comdat align 2 {
  %2 = alloca ptr, align 8
  store ptr %0, ptr %2, align 8
  %3 = load ptr, ptr %2, align 8
  %4 = call noundef i64 @_ZNK7LIR_Opr5valueEv(ptr noundef nonnull align 8 dereferenceable(8) %3)
  %5 = and i64 %4, 7
  %6 = trunc i64 %5 to i32
  ret i32 %6
}

; Function Attrs: mustprogress nounwind uwtable
define linkonce_odr hidden void @_ZN7LIR_OprC2El(ptr noundef nonnull align 8 dereferenceable(8) %0, i64 noundef %1) unnamed_addr #1 comdat align 2 {
  %3 = alloca ptr, align 8
  %4 = alloca i64, align 8
  store ptr %0, ptr %3, align 8
  store i64 %1, ptr %4, align 8
  %5 = load ptr, ptr %3, align 8
  %6 = getelementptr inbounds %class.LIR_Opr, ptr %5, i32 0, i32 0
  %7 = load i64, ptr %4, align 8
  store i64 %7, ptr %6, align 8
  ret void
}

; Function Attrs: mustprogress nounwind uwtable
define linkonce_odr hidden void @_ZN7LIR_OprC2Ev(ptr noundef nonnull align 8 dereferenceable(8) %0) unnamed_addr #1 comdat align 2 {
  %2 = alloca ptr, align 8
  store ptr %0, ptr %2, align 8
  %3 = load ptr, ptr %2, align 8
  %4 = getelementptr inbounds %class.LIR_Opr, ptr %3, i32 0, i32 0
  store i64 0, ptr %4, align 8
  ret void
}

; Function Attrs: mustprogress nounwind uwtable
define linkonce_odr hidden noundef ptr @_ZNK12LIRGenerator11compilationEv(ptr noundef nonnull align 8 dereferenceable(232) %0) #1 comdat align 2 {
  %2 = alloca ptr, align 8
  store ptr %0, ptr %2, align 8
  %3 = load ptr, ptr %2, align 8
  %4 = getelementptr inbounds %class.LIRGenerator, ptr %3, i32 0, i32 2
  %5 = load ptr, ptr %4, align 8
  ret ptr %5
}

; Function Attrs: mustprogress nounwind uwtable
define linkonce_odr hidden noundef i64 @_ZNK7LIR_Opr5valueEv(ptr noundef nonnull align 8 dereferenceable(8) %0) #1 comdat align 2 {
  %2 = alloca ptr, align 8
  store ptr %0, ptr %2, align 8
  %3 = load ptr, ptr %2, align 8
  %4 = getelementptr inbounds %class.LIR_Opr, ptr %3, i32 0, i32 0
  %5 = load i64, ptr %4, align 8
  ret i64 %5
}

; Function Attrs: mustprogress nounwind uwtable
define linkonce_odr hidden noundef zeroext i1 @_ZNK7LIR_Opr10is_illegalEv(ptr noundef nonnull align 8 dereferenceable(8) %0) #1 comdat align 2 {
  %2 = alloca ptr, align 8
  store ptr %0, ptr %2, align 8
  %3 = load ptr, ptr %2, align 8
  %4 = call noundef i32 @_ZNK7LIR_Opr10kind_fieldEv(ptr noundef nonnull align 8 dereferenceable(8) %3)
  %5 = icmp eq i32 %4, 7
  ret i1 %5
}

; Function Attrs: mustprogress nounwind uwtable
define linkonce_odr hidden noundef zeroext i1 @_ZNK7LIR_Opr16check_value_maskEll(ptr noundef nonnull align 8 dereferenceable(8) %0, i64 noundef %1, i64 noundef %2) #1 comdat align 2 {
  %4 = alloca ptr, align 8
  %5 = alloca i64, align 8
  %6 = alloca i64, align 8
  store ptr %0, ptr %4, align 8
  store i64 %1, ptr %5, align 8
  store i64 %2, ptr %6, align 8
  %7 = load ptr, ptr %4, align 8
  %8 = call noundef i64 @_ZNK7LIR_Opr5valueEv(ptr noundef nonnull align 8 dereferenceable(8) %7)
  %9 = load i64, ptr %5, align 8
  %10 = and i64 %8, %9
  %11 = load i64, ptr %6, align 8
  %12 = icmp eq i64 %10, %11
  ret i1 %12
}

; Function Attrs: mustprogress nounwind uwtable
define linkonce_odr hidden noundef ptr @_ZNK12LIRGenerator3lirEv(ptr noundef nonnull align 8 dereferenceable(232) %0) #1 comdat align 2 {
  %2 = alloca ptr, align 8
  store ptr %0, ptr %2, align 8
  %3 = load ptr, ptr %2, align 8
  %4 = getelementptr inbounds %class.LIRGenerator, ptr %3, i32 0, i32 8
  %5 = load ptr, ptr %4, align 8
  ret ptr %5
}

; Function Attrs: mustprogress nounwind uwtable
define linkonce_odr hidden noundef ptr @_ZN11PhiResolver3genEv(ptr noundef nonnull align 8 dereferenceable(32) %0) #1 comdat align 2 {
  %2 = alloca ptr, align 8
  store ptr %0, ptr %2, align 8
  %3 = load ptr, ptr %2, align 8
  %4 = getelementptr inbounds %class.PhiResolver, ptr %3, i32 0, i32 0
  %5 = load ptr, ptr %4, align 8
  ret ptr %5
}

; Function Attrs: mustprogress nounwind uwtable
define linkonce_odr hidden i64 @_ZN11LIR_OprFact16virtual_registerEi9BasicType(i32 noundef %0, i8 noundef zeroext %1) #1 comdat align 2 {
  %3 = alloca %class.LIR_Opr, align 8
  %4 = alloca i32, align 4
  %5 = alloca i8, align 1
  %6 = alloca %class.LIR_Opr, align 8
  %7 = alloca %class.LIR_Opr, align 8
  %8 = alloca %class.LIR_Opr, align 8
  %9 = alloca %class.LIR_Opr, align 8
  %10 = alloca %class.LIR_Opr, align 8
  %11 = alloca %class.LIR_Opr, align 8
  %12 = alloca %class.LIR_Opr, align 8
  store i32 %0, ptr %4, align 4
  store i8 %1, ptr %5, align 1
  %13 = load i32, ptr %4, align 4
  %14 = icmp sgt i32 %13, 10000
  br i1 %14, label %15, label %16

15:                                               ; preds = %2
  call void @llvm.memcpy.p0.p0.i64(ptr align 8 %3, ptr align 8 @_ZN11LIR_OprFact10illegalOprE, i64 8, i1 false)
  br label %80

16:                                               ; preds = %2
  call void @_ZN7LIR_OprC2Ev(ptr noundef nonnull align 8 dereferenceable(8) %3)
  %17 = load i8, ptr %5, align 1
  %18 = zext i8 %17 to i32
  switch i32 %18, label %75 [
    i32 12, label %19
    i32 13, label %19
    i32 17, label %27
    i32 10, label %35
    i32 15, label %43
    i32 11, label %51
    i32 6, label %59
    i32 7, label %67
  ]

19:                                               ; preds = %16, %16
  %20 = load i32, ptr %4, align 4
  %21 = shl i32 %20, 14
  %22 = or i32 %21, 24
  %23 = or i32 %22, 3
  %24 = or i32 %23, 0
  %25 = or i32 %24, 4096
  %26 = sext i32 %25 to i64
  call void @_ZN7LIR_OprC2El(ptr noundef nonnull align 8 dereferenceable(8) %6, i64 noundef %26)
  call void @llvm.memcpy.p0.p0.i64(ptr align 8 %3, ptr align 8 %6, i64 8, i1 false)
  br label %79

27:                                               ; preds = %16
  %28 = load i32, ptr %4, align 4
  %29 = shl i32 %28, 14
  %30 = or i32 %29, 56
  %31 = or i32 %30, 3
  %32 = or i32 %31, 0
  %33 = or i32 %32, 4096
  %34 = sext i32 %33 to i64
  call void @_ZN7LIR_OprC2El(ptr noundef nonnull align 8 dereferenceable(8) %7, i64 noundef %34)
  call void @llvm.memcpy.p0.p0.i64(ptr align 8 %3, ptr align 8 %7, i64 8, i1 false)
  br label %79

35:                                               ; preds = %16
  %36 = load i32, ptr %4, align 4
  %37 = shl i32 %36, 14
  %38 = or i32 %37, 8
  %39 = or i32 %38, 3
  %40 = or i32 %39, 0
  %41 = or i32 %40, 4096
  %42 = sext i32 %41 to i64
  call void @_ZN7LIR_OprC2El(ptr noundef nonnull align 8 dereferenceable(8) %8, i64 noundef %42)
  call void @llvm.memcpy.p0.p0.i64(ptr align 8 %3, ptr align 8 %8, i64 8, i1 false)
  br label %79

43:                                               ; preds = %16
  %44 = load i32, ptr %4, align 4
  %45 = shl i32 %44, 14
  %46 = or i32 %45, 32
  %47 = or i32 %46, 3
  %48 = or i32 %47, 0
  %49 = or i32 %48, 4096
  %50 = sext i32 %49 to i64
  call void @_ZN7LIR_OprC2El(ptr noundef nonnull align 8 dereferenceable(8) %9, i64 noundef %50)
  call void @llvm.memcpy.p0.p0.i64(ptr align 8 %3, ptr align 8 %9, i64 8, i1 false)
  br label %79

51:                                               ; preds = %16
  %52 = load i32, ptr %4, align 4
  %53 = shl i32 %52, 14
  %54 = or i32 %53, 16
  %55 = or i32 %54, 3
  %56 = or i32 %55, 128
  %57 = or i32 %56, 4096
  %58 = sext i32 %57 to i64
  call void @_ZN7LIR_OprC2El(ptr noundef nonnull align 8 dereferenceable(8) %10, i64 noundef %58)
  call void @llvm.memcpy.p0.p0.i64(ptr align 8 %3, ptr align 8 %10, i64 8, i1 false)
  br label %79

59:                                               ; preds = %16
  %60 = load i32, ptr %4, align 4
  %61 = shl i32 %60, 14
  %62 = or i32 %61, 40
  %63 = or i32 %62, 5
  %64 = or i32 %63, 0
  %65 = or i32 %64, 4096
  %66 = sext i32 %65 to i64
  call void @_ZN7LIR_OprC2El(ptr noundef nonnull align 8 dereferenceable(8) %11, i64 noundef %66)
  call void @llvm.memcpy.p0.p0.i64(ptr align 8 %3, ptr align 8 %11, i64 8, i1 false)
  br label %79

67:                                               ; preds = %16
  %68 = load i32, ptr %4, align 4
  %69 = shl i32 %68, 14
  %70 = or i32 %69, 48
  %71 = or i32 %70, 5
  %72 = or i32 %71, 128
  %73 = or i32 %72, 4096
  %74 = sext i32 %73 to i64
  call void @_ZN7LIR_OprC2El(ptr noundef nonnull align 8 dereferenceable(8) %12, i64 noundef %74)
  call void @llvm.memcpy.p0.p0.i64(ptr align 8 %3, ptr align 8 %12, i64 8, i1 false)
  br label %79

75:                                               ; preds = %16
  br label %76

76:                                               ; preds = %75
  %77 = load ptr, ptr @g_assert_poison, align 8
  store i8 88, ptr %77, align 1
  call void @_Z28report_should_not_reach_herePKci(ptr noundef @.str.14, i32 noundef 753) #7
  unreachable

78:                                               ; No predecessors!
  call void @llvm.memcpy.p0.p0.i64(ptr align 8 %3, ptr align 8 @_ZN11LIR_OprFact10illegalOprE, i64 8, i1 false)
  br label %79

79:                                               ; preds = %78, %67, %59, %51, %43, %35, %27, %19
  br label %80

80:                                               ; preds = %79, %15
  %81 = getelementptr inbounds %class.LIR_Opr, ptr %3, i32 0, i32 0
  %82 = load i64, ptr %81, align 8
  ret i64 %82
}

; Function Attrs: mustprogress nounwind uwtable
define linkonce_odr hidden void @_ZNK12LIRGenerator7bailoutEPKc(ptr noundef nonnull align 8 dereferenceable(232) %0, ptr noundef %1) #1 comdat align 2 {
  %3 = alloca ptr, align 8
  %4 = alloca ptr, align 8
  store ptr %0, ptr %3, align 8
  store ptr %1, ptr %4, align 8
  %5 = load ptr, ptr %3, align 8
  %6 = call noundef ptr @_ZNK12LIRGenerator11compilationEv(ptr noundef nonnull align 8 dereferenceable(232) %5)
  %7 = load ptr, ptr %4, align 8
  call void @_ZN11Compilation7bailoutEPKc(ptr noundef nonnull align 8 dereferenceable(704) %6, ptr noundef %7)
  ret void
}

; Function Attrs: mustprogress nounwind uwtable
define linkonce_odr hidden noundef zeroext i8 @_Z12as_BasicTypeN7LIR_Opr7OprTypeE(i32 noundef %0) #1 comdat {
  %2 = alloca i8, align 1
  %3 = alloca i32, align 4
  store i32 %0, ptr %3, align 4
  %4 = load i32, ptr %3, align 4
  switch i32 %4, label %13 [
    i32 8, label %5
    i32 16, label %6
    i32 40, label %7
    i32 48, label %8
    i32 24, label %9
    i32 32, label %10
    i32 56, label %11
    i32 0, label %12
  ]

5:                                                ; preds = %1
  store i8 10, ptr %2, align 1
  br label %17

6:                                                ; preds = %1
  store i8 11, ptr %2, align 1
  br label %17

7:                                                ; preds = %1
  store i8 6, ptr %2, align 1
  br label %17

8:                                                ; preds = %1
  store i8 7, ptr %2, align 1
  br label %17

9:                                                ; preds = %1
  store i8 12, ptr %2, align 1
  br label %17

10:                                               ; preds = %1
  store i8 15, ptr %2, align 1
  br label %17

11:                                               ; preds = %1
  store i8 17, ptr %2, align 1
  br label %17

12:                                               ; preds = %1
  br label %13

13:                                               ; preds = %12, %1
  br label %14

14:                                               ; preds = %13
  %15 = load ptr, ptr @g_assert_poison, align 8
  store i8 88, ptr %15, align 1
  call void @_Z28report_should_not_reach_herePKci(ptr noundef @.str.14, i32 noundef 508) #7
  unreachable

16:                                               ; No predecessors!
  store i8 99, ptr %2, align 1
  br label %17

17:                                               ; preds = %16, %11, %10, %9, %8, %7, %6, %5
  %18 = load i8, ptr %2, align 1
  ret i8 %18
}

; Function Attrs: mustprogress nounwind uwtable
define linkonce_odr hidden noundef i32 @_ZNK7LIR_Opr10type_fieldEv(ptr noundef nonnull align 8 dereferenceable(8) %0) #1 comdat align 2 {
  %2 = alloca ptr, align 8
  store ptr %0, ptr %2, align 8
  %3 = load ptr, ptr %2, align 8
  %4 = call noundef zeroext i1 @_ZNK7LIR_Opr10is_illegalEv(ptr noundef nonnull align 8 dereferenceable(8) %3)
  br i1 %4, label %5, label %6

5:                                                ; preds = %1
  br label %10

6:                                                ; preds = %1
  %7 = call noundef i64 @_ZNK7LIR_Opr5valueEv(ptr noundef nonnull align 8 dereferenceable(8) %3)
  %8 = and i64 %7, 120
  %9 = trunc i64 %8 to i32
  br label %10

10:                                               ; preds = %6, %5
  %11 = phi i32 [ 0, %5 ], [ %9, %6 ]
  ret i32 %11
}

; Function Attrs: mustprogress nounwind uwtable
define linkonce_odr hidden noundef ptr @_ZNK7LIR_Opr7pointerEv(ptr noundef nonnull align 8 dereferenceable(8) %0) #1 comdat align 2 {
  %2 = alloca ptr, align 8
  store ptr %0, ptr %2, align 8
  %3 = load ptr, ptr %2, align 8
  %4 = getelementptr inbounds %class.LIR_Opr, ptr %3, i32 0, i32 0
  %5 = load i64, ptr %4, align 8
  %6 = inttoptr i64 %5 to ptr
  ret ptr %6
}

; Function Attrs: mustprogress nounwind uwtable
define linkonce_odr hidden noundef zeroext i1 @_ZNK7LIR_Opr10is_pointerEv(ptr noundef nonnull align 8 dereferenceable(8) %0) #1 comdat align 2 {
  %2 = alloca ptr, align 8
  store ptr %0, ptr %2, align 8
  %3 = load ptr, ptr %2, align 8
  %4 = call noundef zeroext i1 @_ZNK7LIR_Opr16check_value_maskEll(ptr noundef nonnull align 8 dereferenceable(8) %3, i64 noundef 1, i64 noundef 0)
  ret i1 %4
}

; Function Attrs: mustprogress nounwind uwtable
define hidden void @_ZN11PhiResolver9emit_moveE7LIR_OprS0_(ptr noundef nonnull align 8 dereferenceable(32) %0, i64 %1, i64 %2) #1 align 2 {
  %4 = alloca %class.LIR_Opr, align 8
  %5 = alloca %class.LIR_Opr, align 8
  %6 = alloca ptr, align 8
  %7 = alloca %class.LIR_Opr, align 8
  %8 = alloca %class.LIR_Opr, align 8
  %9 = getelementptr inbounds %class.LIR_Opr, ptr %4, i32 0, i32 0
  store i64 %1, ptr %9, align 8
  %10 = getelementptr inbounds %class.LIR_Opr, ptr %5, i32 0, i32 0
  store i64 %2, ptr %10, align 8
  store ptr %0, ptr %6, align 8
  %11 = load ptr, ptr %6, align 8
  %12 = call noundef ptr @_ZN11PhiResolver3genEv(ptr noundef nonnull align 8 dereferenceable(32) %11)
  %13 = call noundef ptr @_ZNK12LIRGenerator3lirEv(ptr noundef nonnull align 8 dereferenceable(232) %12)
  call void @llvm.memcpy.p0.p0.i64(ptr align 8 %7, ptr align 8 %4, i64 8, i1 false)
  call void @llvm.memcpy.p0.p0.i64(ptr align 8 %8, ptr align 8 %5, i64 8, i1 false)
  %14 = getelementptr inbounds %class.LIR_Opr, ptr %7, i32 0, i32 0
  %15 = load i64, ptr %14, align 8
  %16 = getelementptr inbounds %class.LIR_Opr, ptr %8, i32 0, i32 0
  %17 = load i64, ptr %16, align 8
  call void @_ZN8LIR_List4moveE7LIR_OprS0_P12CodeEmitInfo(ptr noundef nonnull align 8 dereferenceable(32) %13, i64 %15, i64 %17, ptr noundef null)
  ret void
}

; Function Attrs: mustprogress nounwind uwtable
define hidden i64 @_ZN12LIRGenerator12new_registerE9BasicType(ptr noundef nonnull align 8 dereferenceable(232) %0, i8 noundef zeroext %1) #1 align 2 {
  %3 = alloca %class.LIR_Opr, align 8
  %4 = alloca ptr, align 8
  %5 = alloca i8, align 1
  %6 = alloca i32, align 4
  store ptr %0, ptr %4, align 8
  store i8 %1, ptr %5, align 1
  %7 = load ptr, ptr %4, align 8
  %8 = getelementptr inbounds %class.LIRGenerator, ptr %7, i32 0, i32 6
  %9 = load i32, ptr %8, align 8
  store i32 %9, ptr %6, align 4
  %10 = load i32, ptr %6, align 4
  %11 = add nsw i32 %10, 20
  %12 = icmp sge i32 %11, 10000
  br i1 %12, label %13, label %20

13:                                               ; preds = %2
  call void @_ZNK12LIRGenerator7bailoutEPKc(ptr noundef nonnull align 8 dereferenceable(232) %7, ptr noundef @.str.7)
  %14 = load i32, ptr %6, align 4
  %15 = add nsw i32 %14, 2
  %16 = icmp sge i32 %15, 10000
  br i1 %16, label %17, label %19

17:                                               ; preds = %13
  %18 = getelementptr inbounds %class.LIRGenerator, ptr %7, i32 0, i32 6
  store i32 609, ptr %18, align 8
  store i32 609, ptr %6, align 4
  br label %19

19:                                               ; preds = %17, %13
  br label %20

20:                                               ; preds = %19, %2
  %21 = getelementptr inbounds %class.LIRGenerator, ptr %7, i32 0, i32 6
  %22 = load i32, ptr %21, align 8
  %23 = add nsw i32 %22, 1
  store i32 %23, ptr %21, align 8
  %24 = load i32, ptr %6, align 4
  %25 = load i8, ptr %5, align 1
  %26 = call i64 @_ZN11LIR_OprFact16virtual_registerEi9BasicType(i32 noundef %24, i8 noundef zeroext %25)
  %27 = getelementptr inbounds %class.LIR_Opr, ptr %3, i32 0, i32 0
  store i64 %26, ptr %27, align 8
  %28 = getelementptr inbounds %class.LIR_Opr, ptr %3, i32 0, i32 0
  %29 = load i64, ptr %28, align 8
  ret i64 %29
}

; Function Attrs: mustprogress nounwind uwtable
define linkonce_odr hidden noundef zeroext i8 @_ZNK7LIR_Opr4typeEv(ptr noundef nonnull align 8 dereferenceable(8) %0) #1 comdat align 2 {
  %2 = alloca i8, align 1
  %3 = alloca ptr, align 8
  store ptr %0, ptr %3, align 8
  %4 = load ptr, ptr %3, align 8
  %5 = call noundef zeroext i1 @_ZNK7LIR_Opr10is_pointerEv(ptr noundef nonnull align 8 dereferenceable(8) %4)
  br i1 %5, label %6, label %12

6:                                                ; preds = %1
  %7 = call noundef ptr @_ZNK7LIR_Opr7pointerEv(ptr noundef nonnull align 8 dereferenceable(8) %4)
  %8 = load ptr, ptr %7, align 8
  %9 = getelementptr inbounds ptr, ptr %8, i64 2
  %10 = load ptr, ptr %9, align 8
  %11 = call noundef zeroext i8 %10(ptr noundef nonnull align 8 dereferenceable(8) %7)
  store i8 %11, ptr %2, align 1
  br label %15

12:                                               ; preds = %1
  %13 = call noundef i32 @_ZNK7LIR_Opr10type_fieldEv(ptr noundef nonnull align 8 dereferenceable(8) %4)
  %14 = call noundef zeroext i8 @_Z12as_BasicTypeN7LIR_Opr7OprTypeE(i32 noundef %13)
  store i8 %14, ptr %2, align 1
  br label %15

15:                                               ; preds = %12, %6
  %16 = load i8, ptr %2, align 1
  ret i8 %16
}

; Function Attrs: mustprogress nounwind uwtable
define linkonce_odr hidden noundef ptr @_ZN7LIR_OprptEv(ptr noundef nonnull align 8 dereferenceable(8) %0) #1 comdat align 2 {
  %2 = alloca ptr, align 8
  store ptr %0, ptr %2, align 8
  %3 = load ptr, ptr %2, align 8
  ret ptr %3
}

; Function Attrs: mustprogress nounwind uwtable
define hidden void @_ZN11PhiResolver12move_to_tempE7LIR_Opr(ptr noundef nonnull align 8 dereferenceable(32) %0, i64 %1) #1 align 2 {
  %3 = alloca %class.LIR_Opr, align 8
  %4 = alloca ptr, align 8
  %5 = alloca %class.LIR_Opr, align 8
  %6 = alloca %class.LIR_Opr, align 8
  %7 = alloca %class.LIR_Opr, align 8
  %8 = getelementptr inbounds %class.LIR_Opr, ptr %3, i32 0, i32 0
  store i64 %1, ptr %8, align 8
  store ptr %0, ptr %4, align 8
  %9 = load ptr, ptr %4, align 8
  %10 = getelementptr inbounds %class.PhiResolver, ptr %9, i32 0, i32 0
  %11 = load ptr, ptr %10, align 8
  %12 = call noundef ptr @_ZN7LIR_OprptEv(ptr noundef nonnull align 8 dereferenceable(8) %3)
  %13 = call noundef zeroext i8 @_ZNK7LIR_Opr4typeEv(ptr noundef nonnull align 8 dereferenceable(8) %12)
  %14 = call i64 @_ZN12LIRGenerator12new_registerE9BasicType(ptr noundef nonnull align 8 dereferenceable(232) %11, i8 noundef zeroext %13)
  %15 = getelementptr inbounds %class.LIR_Opr, ptr %5, i32 0, i32 0
  store i64 %14, ptr %15, align 8
  %16 = getelementptr inbounds %class.PhiResolver, ptr %9, i32 0, i32 3
  call void @llvm.memcpy.p0.p0.i64(ptr align 8 %16, ptr align 8 %5, i64 8, i1 false)
  call void @llvm.memcpy.p0.p0.i64(ptr align 8 %6, ptr align 8 %3, i64 8, i1 false)
  %17 = getelementptr inbounds %class.PhiResolver, ptr %9, i32 0, i32 3
  call void @llvm.memcpy.p0.p0.i64(ptr align 8 %7, ptr align 8 %17, i64 8, i1 false)
  %18 = getelementptr inbounds %class.LIR_Opr, ptr %6, i32 0, i32 0
  %19 = load i64, ptr %18, align 8
  %20 = getelementptr inbounds %class.LIR_Opr, ptr %7, i32 0, i32 0
  %21 = load i64, ptr %20, align 8
  call void @_ZN11PhiResolver9emit_moveE7LIR_OprS0_(ptr noundef nonnull align 8 dereferenceable(32) %9, i64 %19, i64 %21)
  ret void
}