; Function Attrs: mustprogress nounwind uwtable
define hidden void @_ZN11PhiResolver12move_to_tempE7LIR_Opr(ptr nocapture noundef nonnull align 8 dereferenceable(32) %0, i64 %1) local_unnamed_addr #3 align 2 {
  %3 = load ptr, ptr %0, align 8
  %4 = and i64 %1, 1
  %5 = icmp eq i64 %4, 0
  br i1 %5, label %6, label %12

6:                                                ; preds = %2
  %7 = inttoptr i64 %1 to ptr
  %8 = load ptr, ptr %7, align 8
  %9 = getelementptr inbounds i8, ptr %8, i64 16
  %10 = load ptr, ptr %9, align 8
  %11 = tail call noundef zeroext i8 %10(ptr noundef nonnull align 8 dereferenceable(8) %7) #17
  br label %_ZNK7LIR_Opr4typeEv.exit

12:                                               ; preds = %2
  %13 = and i64 %1, 7
  %14 = icmp eq i64 %13, 7
  %15 = trunc i64 %1 to i32
  %16 = lshr i32 %15, 3
  %17 = and i32 %16, 15
  %18 = add nsw i32 %17, -1
  %switch.tableidx = select i1 %14, i32 -1, i32 %18
  %19 = icmp ult i32 %switch.tableidx, 7
  br i1 %19, label %switch.lookup, label %20

20:                                               ; preds = %12
  %21 = load ptr, ptr @g_assert_poison, align 8
  store i8 88, ptr %21, align 1
  tail call void @_Z28report_should_not_reach_herePKci(ptr noundef nonnull @.str.14, i32 noundef 508) #18
  unreachable

switch.lookup:                                    ; preds = %12
  %22 = shl nuw nsw i32 %switch.tableidx, 3
  %switch.shiftamt = zext nneg i32 %22 to i56
  %switch.downshift = lshr i56 4792797207726858, %switch.shiftamt
  %switch.masked = trunc i56 %switch.downshift to i8
  br label %_ZNK7LIR_Opr4typeEv.exit

_ZNK7LIR_Opr4typeEv.exit:                         ; preds = %switch.lookup, %6
  %.0.i = phi i8 [ %11, %6 ], [ %switch.masked, %switch.lookup ]
  %23 = getelementptr inbounds i8, ptr %3, i64 112
  %24 = load i32, ptr %23, align 8
  %25 = icmp sgt i32 %24, 9979
  br i1 %25, label %26, label %._crit_edge.i

26:                                               ; preds = %_ZNK7LIR_Opr4typeEv.exit
  %27 = getelementptr inbounds i8, ptr %3, i64 16
  %28 = load ptr, ptr %27, align 8
  tail call void @_ZN11Compilation7bailoutEPKc(ptr noundef nonnull align 8 dereferenceable(704) %28, ptr noundef nonnull @.str.7) #17
  %29 = icmp ugt i32 %24, 9997
  %.pre.i = load i32, ptr %23, align 8
  %spec.select.i = select i1 %29, i32 609, i32 %.pre.i
  %spec.select5.i = select i1 %29, i32 609, i32 %24
  br label %._crit_edge.i

._crit_edge.i:                                    ; preds = %26, %_ZNK7LIR_Opr4typeEv.exit
  %30 = phi i32 [ %24, %_ZNK7LIR_Opr4typeEv.exit ], [ %spec.select.i, %26 ]
  %.0.i3 = phi i32 [ %24, %_ZNK7LIR_Opr4typeEv.exit ], [ %spec.select5.i, %26 ]
  %31 = add nsw i32 %30, 1
  store i32 %31, ptr %23, align 8
  %switch.tableidx6 = add i8 %.0.i, -6
  %32 = icmp ult i8 %switch.tableidx6, 12
  br i1 %32, label %switch.hole_check, label %33

33:                                               ; preds = %switch.hole_check, %._crit_edge.i
  %34 = load ptr, ptr @g_assert_poison, align 8
  store i8 88, ptr %34, align 1
  tail call void @_Z28report_should_not_reach_herePKci(ptr noundef nonnull @.str.14, i32 noundef 753) #18
  unreachable

switch.hole_check:                                ; preds = %._crit_edge.i
  %switch.maskindex = zext nneg i8 %switch.tableidx6 to i16
  %switch.shifted = lshr i16 2803, %switch.maskindex
  %switch.lobit = trunc i16 %switch.shifted to i1
  br i1 %switch.lobit, label %switch.lookup7, label %33

switch.lookup7:                                   ; preds = %switch.hole_check
  %35 = zext nneg i8 %switch.tableidx6 to i64
  %switch.gep = getelementptr inbounds [12 x i32], ptr @switch.table._ZN12LIRGenerator12call_runtimeEP13GrowableArrayI9BasicTypeEPS0_IP7LIRItemEPhP9ValueTypeP12CodeEmitInfo, i64 0, i64 %35
  %switch.load = load i32, ptr %switch.gep, align 4
  %36 = shl i32 %.0.i3, 14
  %37 = or disjoint i32 %switch.load, %36
  %.sroa.015.0.i.i = sext i32 %37 to i64
  %38 = getelementptr inbounds i8, ptr %0, i64 24
  store i64 %.sroa.015.0.i.i, ptr %38, align 8
  %39 = load ptr, ptr %0, align 8
  %40 = getelementptr inbounds i8, ptr %39, i64 144
  %41 = load ptr, ptr %40, align 8
  tail call void @_ZN8LIR_List4moveE7LIR_OprS0_P12CodeEmitInfo(ptr noundef nonnull align 8 dereferenceable(32) %41, i64 %1, i64 %.sroa.015.0.i.i, ptr noundef null)
  ret void
}